; Function Attrs: nounwind uwtable
define i32 @_php_stream_sync(ptr noundef %0, i1 noundef zeroext %1) local_unnamed_addr #2 {
  %3 = load ptr, ptr %0, align 8
  %4 = getelementptr inbounds i8, ptr %3, i64 64
  %5 = load ptr, ptr %4, align 8
  %.not.i = icmp eq ptr %5, null
  br i1 %.not.i, label %.thread.i, label %6

6:                                                ; preds = %2
  %spec.store.select = select i1 %1, i32 2, i32 1
  %7 = tail call i32 %5(ptr noundef nonnull %0, i32 noundef 14, i32 noundef %spec.store.select, ptr noundef null) #27
  %8 = icmp eq i32 %7, -2
  br i1 %8, label %.thread.i, label %_php_stream_set_option.exit

.thread.i:                                        ; preds = %6, %2
  br label %_php_stream_set_option.exit

_php_stream_set_option.exit:                      ; preds = %6, %.thread.i
  %.018.i = phi i32 [ -2, %.thread.i ], [ %7, %6 ]
  ret i32 %.018.i
}